target datalayout = "e-m:e-p270:32:32-p271:32:32-p272:64:64-i64:64-i128:128-f80:128-n8:16:32:64-S128"
target triple = "x86_64-pc-linux-gnu"

%struct._object = type { %union.anon, ptr }
%union.anon = type { i64 }
%struct.anon = type { i32, i32 }
%struct.PyCodeLikeObject = type { %struct._object, ptr, i64, i32 }
%struct._PyMonitoringState = type { i8, i8 }

@.str.4 = private unnamed_addr constant [17 x i8] c"PyCodeLikeObject\00", align 1
@.str.5 = private unnamed_addr constant [4 x i8] c" %d\00", align 1
@.str.6 = private unnamed_addr constant [3 x i8] c": \00", align 1

; Function Attrs: alwaysinline nounwind uwtable
define internal i32 @_Py_IsImmortal(ptr noundef %0) #2 {
  %2 = alloca ptr, align 8
  store ptr %0, ptr %2, align 8, !tbaa !3
  %3 = load ptr, ptr %2, align 8, !tbaa !3
  %4 = getelementptr inbounds nuw %struct._object, ptr %3, i32 0, i32 0
  %5 = getelementptr inbounds nuw %struct.anon, ptr %4, i32 0, i32 0
  %6 = load i32, ptr %5, align 8, !tbaa !8
  %7 = icmp slt i32 %6, 0
  %8 = zext i1 %7 to i32
  ret i32 %8
}

; Function Attrs: inlinehint nounwind uwtable
define internal void @Py_XDECREF(ptr noundef %0) #3 {
  %2 = alloca ptr, align 8
  store ptr %0, ptr %2, align 8, !tbaa !3
  %3 = load ptr, ptr %2, align 8, !tbaa !3
  %4 = icmp ne ptr %3, null
  br i1 %4, label %5, label %7

5:                                                ; preds = %1
  %6 = load ptr, ptr %2, align 8, !tbaa !3
  call void @Py_DECREF(ptr noundef %6)
  br label %7

7:                                                ; preds = %5, %1
  ret void
}

; Function Attrs: alwaysinline nounwind uwtable
define internal void @Py_DECREF(ptr noundef %0) #2 {
  %2 = alloca ptr, align 8
  store ptr %0, ptr %2, align 8, !tbaa !3
  %3 = load ptr, ptr %2, align 8, !tbaa !3
  %4 = call i32 @_Py_IsImmortal(ptr noundef %3)
  %5 = icmp ne i32 %4, 0
  br i1 %5, label %6, label %7

6:                                                ; preds = %1
  br label %16

7:                                                ; preds = %1
  %8 = load ptr, ptr %2, align 8, !tbaa !3
  %9 = getelementptr inbounds nuw %struct._object, ptr %8, i32 0, i32 0
  %10 = getelementptr inbounds nuw %struct.anon, ptr %9, i32 0, i32 0
  %11 = load i32, ptr %10, align 8, !tbaa !8
  %12 = add i32 %11, -1
  store i32 %12, ptr %10, align 8, !tbaa !8
  %13 = icmp eq i32 %12, 0
  br i1 %13, label %14, label %16

14:                                               ; preds = %7
  %15 = load ptr, ptr %2, align 8, !tbaa !3
  call void @_Py_Dealloc(ptr noundef %15)
  br label %16

16:                                               ; preds = %6, %14, %7
  ret void
}

; Function Attrs: nounwind uwtable
define internal ptr @CodeLike_str(ptr noundef %0) #0 {
  %2 = alloca ptr, align 8
  %3 = alloca ptr, align 8
  %4 = alloca ptr, align 8
  %5 = alloca ptr, align 8
  %6 = alloca ptr, align 8
  %7 = alloca ptr, align 8
  %8 = alloca i32, align 4
  %9 = alloca i32, align 4
  %10 = alloca i32, align 4
  %11 = alloca ptr, align 8
  %12 = alloca i32, align 4
  store ptr %0, ptr %3, align 8, !tbaa !9
  call void @llvm.lifetime.start.p0(i64 8, ptr %4) #6
  store ptr null, ptr %4, align 8, !tbaa !3
  call void @llvm.lifetime.start.p0(i64 8, ptr %5) #6
  store ptr null, ptr %5, align 8, !tbaa !3
  call void @llvm.lifetime.start.p0(i64 8, ptr %6) #6
  store ptr null, ptr %6, align 8, !tbaa !3
  %13 = load ptr, ptr %3, align 8, !tbaa !9
  %14 = getelementptr inbounds nuw %struct.PyCodeLikeObject, ptr %13, i32 0, i32 1
  %15 = load ptr, ptr %14, align 8, !tbaa !10
  %16 = icmp ne ptr %15, null
  br i1 %16, label %17, label %88

17:                                               ; preds = %1
  %18 = call ptr @PyList_New(i64 noundef 0)
  store ptr %18, ptr %6, align 8, !tbaa !3
  %19 = load ptr, ptr %6, align 8, !tbaa !3
  %20 = icmp eq ptr %19, null
  br i1 %20, label %21, label %22

21:                                               ; preds = %17
  br label %89

22:                                               ; preds = %17
  call void @llvm.lifetime.start.p0(i64 8, ptr %7) #6
  %23 = call ptr @PyUnicode_FromString(ptr noundef @.str.4)
  store ptr %23, ptr %7, align 8, !tbaa !3
  %24 = load ptr, ptr %7, align 8, !tbaa !3
  %25 = icmp eq ptr %24, null
  br i1 %25, label %26, label %27

26:                                               ; preds = %22
  store i32 2, ptr %10, align 4
  br label %85

27:                                               ; preds = %22
  call void @llvm.lifetime.start.p0(i64 4, ptr %8) #6
  %28 = load ptr, ptr %6, align 8, !tbaa !3
  %29 = load ptr, ptr %7, align 8, !tbaa !3
  %30 = call i32 @PyList_Append(ptr noundef %28, ptr noundef %29)
  store i32 %30, ptr %8, align 4, !tbaa !25
  %31 = load ptr, ptr %7, align 8, !tbaa !3
  call void @Py_DECREF(ptr noundef %31)
  %32 = load i32, ptr %8, align 4, !tbaa !25
  %33 = icmp slt i32 %32, 0
  br i1 %33, label %34, label %35

34:                                               ; preds = %27
  store i32 2, ptr %10, align 4
  br label %84

35:                                               ; preds = %27
  call void @llvm.lifetime.start.p0(i64 4, ptr %9) #6
  store i32 0, ptr %9, align 4, !tbaa !25
  br label %36

36:                                               ; preds = %70, %35
  %37 = load i32, ptr %9, align 4, !tbaa !25
  %38 = load ptr, ptr %3, align 8, !tbaa !9
  %39 = getelementptr inbounds nuw %struct.PyCodeLikeObject, ptr %38, i32 0, i32 3
  %40 = load i32, ptr %39, align 8, !tbaa !26
  %41 = icmp slt i32 %37, %40
  br i1 %41, label %43, label %42

42:                                               ; preds = %36
  store i32 3, ptr %10, align 4
  br label %73

43:                                               ; preds = %36
  call void @llvm.lifetime.start.p0(i64 8, ptr %11) #6
  %44 = load ptr, ptr %3, align 8, !tbaa !9
  %45 = getelementptr inbounds nuw %struct.PyCodeLikeObject, ptr %44, i32 0, i32 1
  %46 = load ptr, ptr %45, align 8, !tbaa !10
  %47 = load i32, ptr %9, align 4, !tbaa !25
  %48 = sext i32 %47 to i64
  %49 = getelementptr %struct._PyMonitoringState, ptr %46, i64 %48
  %50 = getelementptr inbounds nuw %struct._PyMonitoringState, ptr %49, i32 0, i32 0
  %51 = load i8, ptr %50, align 1, !tbaa !27
  %52 = zext i8 %51 to i32
  %53 = call ptr (ptr, ...) @PyUnicode_FromFormat(ptr noundef @.str.5, i32 noundef %52)
  store ptr %53, ptr %11, align 8, !tbaa !3
  %54 = load ptr, ptr %11, align 8, !tbaa !3
  %55 = icmp eq ptr %54, null
  br i1 %55, label %56, label %57

56:                                               ; preds = %43
  store i32 2, ptr %10, align 4
  br label %67

57:                                               ; preds = %43
  call void @llvm.lifetime.start.p0(i64 4, ptr %12) #6
  %58 = load ptr, ptr %6, align 8, !tbaa !3
  %59 = load ptr, ptr %11, align 8, !tbaa !3
  %60 = call i32 @PyList_Append(ptr noundef %58, ptr noundef %59)
  store i32 %60, ptr %12, align 4, !tbaa !25
  %61 = load ptr, ptr %11, align 8, !tbaa !3
  call void @Py_XDECREF(ptr noundef %61)
  %62 = load i32, ptr %12, align 4, !tbaa !25
  %63 = icmp slt i32 %62, 0
  br i1 %63, label %64, label %65

64:                                               ; preds = %57
  store i32 2, ptr %10, align 4
  br label %66

65:                                               ; preds = %57
  store i32 0, ptr %10, align 4
  br label %66

66:                                               ; preds = %64, %65
  call void @llvm.lifetime.end.p0(i64 4, ptr %12) #6
  br label %67

67:                                               ; preds = %56, %66
  call void @llvm.lifetime.end.p0(i64 8, ptr %11) #6
  %68 = load i32, ptr %10, align 4
  switch i32 %68, label %73 [
    i32 0, label %69
  ]

69:                                               ; preds = %67
  br label %70

70:                                               ; preds = %69
  %71 = load i32, ptr %9, align 4, !tbaa !25
  %72 = add i32 %71, 1
  store i32 %72, ptr %9, align 4, !tbaa !25
  br label %36, !llvm.loop !29

73:                                               ; preds = %67, %42
  call void @llvm.lifetime.end.p0(i64 4, ptr %9) #6
  %74 = load i32, ptr %10, align 4
  switch i32 %74, label %84 [
    i32 3, label %75
  ]

75:                                               ; preds = %73
  %76 = call ptr @PyUnicode_FromString(ptr noundef @.str.6)
  store ptr %76, ptr %5, align 8, !tbaa !3
  %77 = load ptr, ptr %5, align 8, !tbaa !3
  %78 = icmp eq ptr %77, null
  br i1 %78, label %79, label %80

79:                                               ; preds = %75
  store i32 2, ptr %10, align 4
  br label %84

80:                                               ; preds = %75
  %81 = load ptr, ptr %5, align 8, !tbaa !3
  %82 = load ptr, ptr %6, align 8, !tbaa !3
  %83 = call ptr @PyUnicode_Join(ptr noundef %81, ptr noundef %82)
  store ptr %83, ptr %4, align 8, !tbaa !3
  store i32 0, ptr %10, align 4
  br label %84

84:                                               ; preds = %79, %34, %80, %73
  call void @llvm.lifetime.end.p0(i64 4, ptr %8) #6
  br label %85

85:                                               ; preds = %26, %84
  call void @llvm.lifetime.end.p0(i64 8, ptr %7) #6
  %86 = load i32, ptr %10, align 4
  switch i32 %86, label %93 [
    i32 0, label %87
    i32 2, label %89
  ]

87:                                               ; preds = %85
  br label %88

88:                                               ; preds = %87, %1
  br label %89

89:                                               ; preds = %88, %85, %21
  %90 = load ptr, ptr %5, align 8, !tbaa !3
  call void @Py_XDECREF(ptr noundef %90)
  %91 = load ptr, ptr %6, align 8, !tbaa !3
  call void @Py_XDECREF(ptr noundef %91)
  %92 = load ptr, ptr %4, align 8, !tbaa !3
  store ptr %92, ptr %2, align 8
  store i32 1, ptr %10, align 4
  br label %93

93:                                               ; preds = %89, %85
  call void @llvm.lifetime.end.p0(i64 8, ptr %6) #6
  call void @llvm.lifetime.end.p0(i64 8, ptr %5) #6
  call void @llvm.lifetime.end.p0(i64 8, ptr %4) #6
  %94 = load ptr, ptr %2, align 8
  ret ptr %94
}