; Function Attrs: nounwind uwtable
define internal ptr @CodeLike_str(ptr noundef readonly captures(none) %0) #0 {
  %2 = getelementptr inbounds nuw i8, ptr %0, i64 16
  %3 = load ptr, ptr %2, align 8, !tbaa !6
  %.not = icmp eq ptr %3, null
  br i1 %.not, label %Py_XDECREF.exit48, label %4

4:                                                ; preds = %1
  %5 = tail call ptr @PyList_New(i64 noundef 0) #4
  %6 = icmp eq ptr %5, null
  br i1 %6, label %Py_XDECREF.exit48, label %7

7:                                                ; preds = %4
  %8 = tail call ptr @PyUnicode_FromString(ptr noundef nonnull @.str.4) #4
  %9 = icmp eq ptr %8, null
  br i1 %9, label %Py_XDECREF.exit45.thread, label %10

10:                                               ; preds = %7
  %11 = tail call i32 @PyList_Append(ptr noundef nonnull %5, ptr noundef nonnull %8) #4
  %12 = load i32, ptr %8, align 8, !tbaa !3
  %.not.i = icmp sgt i32 %12, -1
  br i1 %.not.i, label %13, label %Py_DECREF.exit

13:                                               ; preds = %10
  %14 = add nsw i32 %12, -1
  store i32 %14, ptr %8, align 8, !tbaa !3
  %15 = icmp eq i32 %14, 0
  br i1 %15, label %16, label %Py_DECREF.exit

16:                                               ; preds = %13
  tail call void @_Py_Dealloc(ptr noundef nonnull %8) #4
  br label %Py_DECREF.exit

Py_DECREF.exit:                                   ; preds = %10, %13, %16
  %17 = icmp slt i32 %11, 0
  br i1 %17, label %Py_XDECREF.exit45.thread, label %.preheader

.preheader:                                       ; preds = %Py_DECREF.exit
  %18 = getelementptr inbounds nuw i8, ptr %0, i64 32
  %19 = load i32, ptr %18, align 8, !tbaa !24
  %20 = icmp sgt i32 %19, 0
  br i1 %20, label %.lr.ph, label %._crit_edge

21:                                               ; preds = %Py_XDECREF.exit
  %indvars.iv.next = add nuw nsw i64 %indvars.iv, 1
  %22 = load i32, ptr %18, align 8, !tbaa !24
  %23 = sext i32 %22 to i64
  %24 = icmp slt i64 %indvars.iv.next, %23
  br i1 %24, label %.lr.ph, label %._crit_edge, !llvm.loop !25

.lr.ph:                                           ; preds = %.preheader, %21
  %indvars.iv = phi i64 [ %indvars.iv.next, %21 ], [ 0, %.preheader ]
  %25 = load ptr, ptr %2, align 8, !tbaa !6
  %26 = getelementptr %struct._PyMonitoringState, ptr %25, i64 %indvars.iv
  %27 = load i8, ptr %26, align 1, !tbaa !27
  %28 = zext i8 %27 to i32
  %29 = tail call ptr (ptr, ...) @PyUnicode_FromFormat(ptr noundef nonnull @.str.5, i32 noundef %28) #4
  %30 = icmp eq ptr %29, null
  br i1 %30, label %Py_XDECREF.exit45.thread, label %31

31:                                               ; preds = %.lr.ph
  %32 = tail call i32 @PyList_Append(ptr noundef nonnull %5, ptr noundef nonnull %29) #4
  %33 = load i32, ptr %29, align 8, !tbaa !3
  %.not.i.i = icmp sgt i32 %33, -1
  br i1 %.not.i.i, label %34, label %Py_XDECREF.exit

34:                                               ; preds = %31
  %35 = add nsw i32 %33, -1
  store i32 %35, ptr %29, align 8, !tbaa !3
  %36 = icmp eq i32 %35, 0
  br i1 %36, label %37, label %Py_XDECREF.exit

37:                                               ; preds = %34
  tail call void @_Py_Dealloc(ptr noundef nonnull %29) #4
  br label %Py_XDECREF.exit

Py_XDECREF.exit:                                  ; preds = %31, %34, %37
  %38 = icmp slt i32 %32, 0
  br i1 %38, label %Py_XDECREF.exit45.thread, label %21

._crit_edge:                                      ; preds = %21, %.preheader
  %39 = tail call ptr @PyUnicode_FromString(ptr noundef nonnull @.str.6) #4
  %40 = icmp eq ptr %39, null
  br i1 %40, label %Py_XDECREF.exit45.thread, label %41

41:                                               ; preds = %._crit_edge
  %42 = tail call ptr @PyUnicode_Join(ptr noundef nonnull %39, ptr noundef nonnull %5) #4
  %43 = load i32, ptr %39, align 8, !tbaa !3
  %.not.i.i44 = icmp sgt i32 %43, -1
  br i1 %.not.i.i44, label %44, label %Py_XDECREF.exit45.thread

44:                                               ; preds = %41
  %45 = add nsw i32 %43, -1
  store i32 %45, ptr %39, align 8, !tbaa !3
  %46 = icmp eq i32 %45, 0
  br i1 %46, label %47, label %Py_XDECREF.exit45.thread

47:                                               ; preds = %44
  tail call void @_Py_Dealloc(ptr noundef nonnull %39) #4
  br label %Py_XDECREF.exit45.thread

Py_XDECREF.exit45.thread:                         ; preds = %.lr.ph, %Py_XDECREF.exit, %Py_DECREF.exit, %._crit_edge, %7, %47, %44, %41
  %.0276165 = phi ptr [ %42, %41 ], [ %42, %44 ], [ %42, %47 ], [ null, %7 ], [ null, %._crit_edge ], [ null, %Py_DECREF.exit ], [ null, %Py_XDECREF.exit ], [ null, %.lr.ph ]
  %48 = load i32, ptr %5, align 8, !tbaa !3
  %.not.i.i47 = icmp sgt i32 %48, -1
  br i1 %.not.i.i47, label %49, label %Py_XDECREF.exit48

49:                                               ; preds = %Py_XDECREF.exit45.thread
  %50 = add nsw i32 %48, -1
  store i32 %50, ptr %5, align 8, !tbaa !3
  %51 = icmp eq i32 %50, 0
  br i1 %51, label %52, label %Py_XDECREF.exit48

52:                                               ; preds = %49
  tail call void @_Py_Dealloc(ptr noundef nonnull %5) #4
  br label %Py_XDECREF.exit48

Py_XDECREF.exit48:                                ; preds = %4, %1, %52, %49, %Py_XDECREF.exit45.thread
  %.0 = phi ptr [ %.0276165, %Py_XDECREF.exit45.thread ], [ %.0276165, %49 ], [ %.0276165, %52 ], [ null, %1 ], [ null, %4 ]
  ret ptr %.0
}